target datalayout = "e-m:e-p270:32:32-p271:32:32-p272:64:64-i64:64-i128:128-f80:128-n8:16:32:64-S128"
target triple = "x86_64-pc-linux-gnu"

; Function Attrs: inlinehint nounwind sspstrong willreturn memory(none) uwtable
define internal zeroext i1 @RB_NIL_P(i64 noundef %0) #10 {
  %2 = alloca i64, align 8
  store i64 %0, ptr %2, align 8, !tbaa !13
  %3 = load i64, ptr %2, align 8, !tbaa !13
  %4 = icmp eq i64 %3, 4
  ret i1 %4
}

; Function Attrs: nounwind sspstrong uwtable
define internal ptr @ripper_lex_io_get(ptr noundef %0, ptr noundef %1, i32 noundef %2) #0 {
  %4 = alloca ptr, align 8
  %5 = alloca ptr, align 8
  %6 = alloca ptr, align 8
  %7 = alloca i32, align 4
  %8 = alloca i64, align 8
  %9 = alloca i64, align 8
  %10 = alloca i32, align 4
  store ptr %0, ptr %5, align 8, !tbaa !6
  store ptr %1, ptr %6, align 8, !tbaa !25
  store i32 %2, ptr %7, align 4, !tbaa !24
  call void @llvm.lifetime.start.p0(i64 8, ptr %8) #16
  %11 = load ptr, ptr %6, align 8, !tbaa !25
  %12 = ptrtoint ptr %11 to i64
  store i64 %12, ptr %8, align 8, !tbaa !13
  call void @llvm.lifetime.start.p0(i64 8, ptr %9) #16
  %13 = load i64, ptr %8, align 8, !tbaa !13
  %14 = call i64 @rb_io_gets(i64 noundef %13)
  store i64 %14, ptr %9, align 8, !tbaa !13
  %15 = load i64, ptr %9, align 8, !tbaa !13
  %16 = call zeroext i1 @RB_NIL_P(i64 noundef %15) #19
  br i1 %16, label %17, label %18

17:                                               ; preds = %3
  store ptr null, ptr %4, align 8
  store i32 1, ptr %10, align 4
  br label %22

18:                                               ; preds = %3
  %19 = load ptr, ptr %5, align 8, !tbaa !6
  %20 = load i64, ptr %9, align 8, !tbaa !13
  %21 = call ptr @rb_str_to_parser_string(ptr noundef %19, i64 noundef %20)
  store ptr %21, ptr %4, align 8
  store i32 1, ptr %10, align 4
  br label %22

22:                                               ; preds = %18, %17
  call void @llvm.lifetime.end.p0(i64 8, ptr %9) #16
  call void @llvm.lifetime.end.p0(i64 8, ptr %8) #16
  %23 = load ptr, ptr %4, align 8
  ret ptr %23
}