; Function Attrs: nounwind sspstrong uwtable
define internal ptr @ripper_lex_io_get(ptr noundef %0, ptr noundef %1, i32 %2) #0 {
  %4 = ptrtoint ptr %1 to i64
  %5 = tail call i64 @rb_io_gets(i64 noundef %4) #5
  %6 = icmp eq i64 %5, 4
  br i1 %6, label %9, label %7

7:                                                ; preds = %3
  %8 = tail call ptr @rb_str_to_parser_string(ptr noundef %0, i64 noundef %5) #5
  br label %9

9:                                                ; preds = %3, %7
  %.0 = phi ptr [ %8, %7 ], [ null, %3 ]
  ret ptr %.0
}